target datalayout = "e-m:e-p270:32:32-p271:32:32-p272:64:64-i64:64-i128:128-f80:128-n8:16:32:64-S128"
target triple = "x86_64-unknown-linux-gnu"

%"class.std::__shared_count" = type { ptr }
%"class.std::shared_ptr.3" = type { %"class.std::__shared_ptr.4" }
%"class.std::__shared_ptr.4" = type { ptr, %"class.std::__shared_count" }
%"class.__gnu_cxx::__normal_iterator" = type { ptr }
%"class.facebook::velox::RowVector" = type <{ %"class.facebook::velox::BaseVector.base", [5 x i8], i64, %"class.std::vector", i8, i8, [6 x i8] }>
%"class.facebook::velox::BaseVector.base" = type <{ ptr, %"class.std::shared_ptr.0", i8, [3 x i8], i32, %"class.boost::intrusive_ptr", ptr, ptr, i32, %"class.std::optional", %"class.std::optional", %"class.std::optional", %"class.std::optional", i32, i8, i8, i8 }>
%"class.std::shared_ptr.0" = type { %"class.std::__shared_ptr.1" }
%"class.std::__shared_ptr.1" = type { ptr, %"class.std::__shared_count" }
%"class.boost::intrusive_ptr" = type { ptr }
%"class.std::optional" = type { %"struct.std::_Optional_base" }
%"struct.std::_Optional_base" = type { %"struct.std::_Optional_payload" }
%"struct.std::_Optional_payload" = type { %"struct.std::_Optional_payload_base.base", [3 x i8] }
%"struct.std::_Optional_payload_base.base" = type <{ %"union.std::_Optional_payload_base<int>::_Storage", i8 }>
%"union.std::_Optional_payload_base<int>::_Storage" = type { i32 }
%"class.std::vector" = type { %"struct.std::_Vector_base" }
%"struct.std::_Vector_base" = type { %"struct.std::_Vector_base<std::shared_ptr<facebook::velox::BaseVector>, std::allocator<std::shared_ptr<facebook::velox::BaseVector>>>::_Vector_impl" }
%"struct.std::_Vector_base<std::shared_ptr<facebook::velox::BaseVector>, std::allocator<std::shared_ptr<facebook::velox::BaseVector>>>::_Vector_impl" = type { %"struct.std::_Vector_base<std::shared_ptr<facebook::velox::BaseVector>, std::allocator<std::shared_ptr<facebook::velox::BaseVector>>>::_Vector_impl_data" }
%"struct.std::_Vector_base<std::shared_ptr<facebook::velox::BaseVector>, std::allocator<std::shared_ptr<facebook::velox::BaseVector>>>::_Vector_impl_data" = type { ptr, ptr, ptr }
%"class.facebook::velox::BaseVector" = type <{ ptr, %"class.std::shared_ptr.0", i8, [3 x i8], i32, %"class.boost::intrusive_ptr", ptr, ptr, i32, %"class.std::optional", %"class.std::optional", %"class.std::optional", %"class.std::optional", i32, i8, i8, i8, [5 x i8] }>
%"class.std::_Sp_counted_base" = type { ptr, i32, i32 }

; Function Attrs: mustprogress nounwind uwtable
define linkonce_odr noundef i64 @_ZNKSt16_Sp_counted_baseILN9__gnu_cxx12_Lock_policyE2EE16_M_get_use_countEv(ptr noundef nonnull align 8 dereferenceable(16) %this) #3 comdat align 2 {
entry:
  %this.addr = alloca ptr, align 8
  %atomic-temp = alloca i32, align 4
  store ptr %this, ptr %this.addr, align 8
  %this1 = load ptr, ptr %this.addr, align 8
  %_M_use_count = getelementptr inbounds %"class.std::_Sp_counted_base", ptr %this1, i32 0, i32 1
  %0 = load atomic i32, ptr %_M_use_count monotonic, align 8
  store i32 %0, ptr %atomic-temp, align 4
  %1 = load i32, ptr %atomic-temp, align 4
  %conv = sext i32 %1 to i64
  ret i64 %conv
}

; Function Attrs: mustprogress nounwind uwtable
define linkonce_odr noundef i64 @_ZNKSt14__shared_countILN9__gnu_cxx12_Lock_policyE2EE16_M_get_use_countEv(ptr noundef nonnull align 8 dereferenceable(8) %this) #3 comdat align 2 {
entry:
  %this.addr = alloca ptr, align 8
  store ptr %this, ptr %this.addr, align 8
  %this1 = load ptr, ptr %this.addr, align 8
  %_M_pi = getelementptr inbounds %"class.std::__shared_count", ptr %this1, i32 0, i32 0
  %0 = load ptr, ptr %_M_pi, align 8
  %tobool = icmp ne ptr %0, null
  br i1 %tobool, label %cond.true, label %cond.false

cond.true:                                        ; preds = %entry
  %_M_pi2 = getelementptr inbounds %"class.std::__shared_count", ptr %this1, i32 0, i32 0
  %1 = load ptr, ptr %_M_pi2, align 8
  %call = call noundef i64 @_ZNKSt16_Sp_counted_baseILN9__gnu_cxx12_Lock_policyE2EE16_M_get_use_countEv(ptr noundef nonnull align 8 dereferenceable(16) %1) #18
  br label %cond.end

cond.false:                                       ; preds = %entry
  br label %cond.end

cond.end:                                         ; preds = %cond.false, %cond.true
  %cond = phi i64 [ %call, %cond.true ], [ 0, %cond.false ]
  ret i64 %cond
}

; Function Attrs: mustprogress nounwind uwtable
define linkonce_odr noundef ptr @_ZNKSt12__shared_ptrIN8facebook5velox10BaseVectorELN9__gnu_cxx12_Lock_policyE2EE3getEv(ptr noundef nonnull align 8 dereferenceable(16) %this) #3 comdat align 2 {
entry:
  %this.addr = alloca ptr, align 8
  store ptr %this, ptr %this.addr, align 8
  %this1 = load ptr, ptr %this.addr, align 8
  %_M_ptr = getelementptr inbounds %"class.std::__shared_ptr.4", ptr %this1, i32 0, i32 0
  %0 = load ptr, ptr %_M_ptr, align 8
  ret ptr %0
}

; Function Attrs: mustprogress nounwind uwtable
define linkonce_odr noundef zeroext i1 @_ZNKSt14__shared_countILN9__gnu_cxx12_Lock_policyE2EE9_M_uniqueEv(ptr noundef nonnull align 8 dereferenceable(8) %this) #3 comdat align 2 {
entry:
  %this.addr = alloca ptr, align 8
  store ptr %this, ptr %this.addr, align 8
  %this1 = load ptr, ptr %this.addr, align 8
  %call = call noundef i64 @_ZNKSt14__shared_countILN9__gnu_cxx12_Lock_policyE2EE16_M_get_use_countEv(ptr noundef nonnull align 8 dereferenceable(8) %this1) #18
  %cmp = icmp eq i64 %call, 1
  ret i1 %cmp
}

; Function Attrs: mustprogress nounwind uwtable
define linkonce_odr noundef i32 @_ZNK8facebook5velox10BaseVector8encodingEv(ptr noundef nonnull align 8 dereferenceable(99) %this) #3 comdat align 2 {
entry:
  %this.addr = alloca ptr, align 8
  store ptr %this, ptr %this.addr, align 8
  %this1 = load ptr, ptr %this.addr, align 8
  %encoding_ = getelementptr inbounds %"class.facebook::velox::BaseVector", ptr %this1, i32 0, i32 4
  %0 = load i32, ptr %encoding_, align 4
  ret i32 %0
}

; Function Attrs: mustprogress nounwind uwtable
define linkonce_odr noundef ptr @_ZNKSt19__shared_ptr_accessIN8facebook5velox10BaseVectorELN9__gnu_cxx12_Lock_policyE2ELb0ELb0EE6_M_getEv(ptr noundef nonnull align 1 dereferenceable(1) %this) #3 comdat align 2 {
entry:
  %this.addr = alloca ptr, align 8
  store ptr %this, ptr %this.addr, align 8
  %this1 = load ptr, ptr %this.addr, align 8
  %call = call noundef ptr @_ZNKSt12__shared_ptrIN8facebook5velox10BaseVectorELN9__gnu_cxx12_Lock_policyE2EE3getEv(ptr noundef nonnull align 8 dereferenceable(16) %this1) #18
  ret ptr %call
}

; Function Attrs: mustprogress nounwind uwtable
define linkonce_odr noundef nonnull align 8 dereferenceable(8) ptr @_ZNK9__gnu_cxx17__normal_iteratorIPSt10shared_ptrIN8facebook5velox10BaseVectorEESt6vectorIS5_SaIS5_EEE4baseEv(ptr noundef nonnull align 8 dereferenceable(8) %this) #3 comdat align 2 {
entry:
  %this.addr = alloca ptr, align 8
  store ptr %this, ptr %this.addr, align 8
  %this1 = load ptr, ptr %this.addr, align 8
  %_M_current = getelementptr inbounds %"class.__gnu_cxx::__normal_iterator", ptr %this1, i32 0, i32 0
  ret ptr %_M_current
}

; Function Attrs: mustprogress nounwind uwtable
define linkonce_odr void @_ZN9__gnu_cxx17__normal_iteratorIPSt10shared_ptrIN8facebook5velox10BaseVectorEESt6vectorIS5_SaIS5_EEEC2ERKS6_(ptr noundef nonnull align 8 dereferenceable(8) %this, ptr noundef nonnull align 8 dereferenceable(8) %__i) unnamed_addr #3 comdat align 2 {
entry:
  %this.addr = alloca ptr, align 8
  %__i.addr = alloca ptr, align 8
  store ptr %this, ptr %this.addr, align 8
  store ptr %__i, ptr %__i.addr, align 8
  %this1 = load ptr, ptr %this.addr, align 8
  %_M_current = getelementptr inbounds %"class.__gnu_cxx::__normal_iterator", ptr %this1, i32 0, i32 0
  %0 = load ptr, ptr %__i.addr, align 8
  %1 = load ptr, ptr %0, align 8
  store ptr %1, ptr %_M_current, align 8
  ret void
}

; Function Attrs: mustprogress nounwind uwtable
define linkonce_odr noundef nonnull align 8 dereferenceable(8) ptr @_ZN9__gnu_cxx17__normal_iteratorIPSt10shared_ptrIN8facebook5velox10BaseVectorEESt6vectorIS5_SaIS5_EEEppEv(ptr noundef nonnull align 8 dereferenceable(8) %this) #3 comdat align 2 {
entry:
  %this.addr = alloca ptr, align 8
  store ptr %this, ptr %this.addr, align 8
  %this1 = load ptr, ptr %this.addr, align 8
  %_M_current = getelementptr inbounds %"class.__gnu_cxx::__normal_iterator", ptr %this1, i32 0, i32 0
  %0 = load ptr, ptr %_M_current, align 8
  %incdec.ptr = getelementptr inbounds %"class.std::shared_ptr.3", ptr %0, i32 1
  store ptr %incdec.ptr, ptr %_M_current, align 8
  ret ptr %this1
}

; Function Attrs: mustprogress nounwind uwtable
define linkonce_odr noundef zeroext i1 @_ZNKSt12__shared_ptrIN8facebook5velox10BaseVectorELN9__gnu_cxx12_Lock_policyE2EE6uniqueEv(ptr noundef nonnull align 8 dereferenceable(16) %this) #3 comdat align 2 {
entry:
  %this.addr = alloca ptr, align 8
  store ptr %this, ptr %this.addr, align 8
  %this1 = load ptr, ptr %this.addr, align 8
  %_M_refcount = getelementptr inbounds %"class.std::__shared_ptr.4", ptr %this1, i32 0, i32 1
  %call = call noundef zeroext i1 @_ZNKSt14__shared_countILN9__gnu_cxx12_Lock_policyE2EE9_M_uniqueEv(ptr noundef nonnull align 8 dereferenceable(8) %_M_refcount) #18
  ret i1 %call
}

; Function Attrs: mustprogress nounwind uwtable
define linkonce_odr noundef zeroext i1 @_ZNK8facebook5velox10BaseVector6isLazyEv(ptr noundef nonnull align 8 dereferenceable(99) %this) #3 comdat align 2 {
entry:
  %this.addr = alloca ptr, align 8
  store ptr %this, ptr %this.addr, align 8
  %this1 = load ptr, ptr %this.addr, align 8
  %call = call noundef i32 @_ZNK8facebook5velox10BaseVector8encodingEv(ptr noundef nonnull align 8 dereferenceable(99) %this1)
  %cmp = icmp eq i32 %call, 8
  ret i1 %cmp
}

; Function Attrs: mustprogress nounwind uwtable
define linkonce_odr noundef ptr @_ZNKSt19__shared_ptr_accessIN8facebook5velox10BaseVectorELN9__gnu_cxx12_Lock_policyE2ELb0ELb0EEptEv(ptr noundef nonnull align 1 dereferenceable(1) %this) #3 comdat align 2 {
entry:
  %this.addr = alloca ptr, align 8
  store ptr %this, ptr %this.addr, align 8
  %this1 = load ptr, ptr %this.addr, align 8
  %call = call noundef ptr @_ZNKSt19__shared_ptr_accessIN8facebook5velox10BaseVectorELN9__gnu_cxx12_Lock_policyE2ELb0ELb0EE6_M_getEv(ptr noundef nonnull align 1 dereferenceable(1) %this1) #18
  ret ptr %call
}

; Function Attrs: mustprogress nounwind uwtable
define linkonce_odr noundef zeroext i1 @_ZNKSt12__shared_ptrIN8facebook5velox10BaseVectorELN9__gnu_cxx12_Lock_policyE2EEcvbEv(ptr noundef nonnull align 8 dereferenceable(16) %this) #3 comdat align 2 {
entry:
  %this.addr = alloca ptr, align 8
  store ptr %this, ptr %this.addr, align 8
  %this1 = load ptr, ptr %this.addr, align 8
  %_M_ptr = getelementptr inbounds %"class.std::__shared_ptr.4", ptr %this1, i32 0, i32 0
  %0 = load ptr, ptr %_M_ptr, align 8
  %cmp = icmp ne ptr %0, null
  ret i1 %cmp
}

; Function Attrs: mustprogress nounwind uwtable
define linkonce_odr noundef nonnull align 8 dereferenceable(16) ptr @_ZNK9__gnu_cxx17__normal_iteratorIPSt10shared_ptrIN8facebook5velox10BaseVectorEESt6vectorIS5_SaIS5_EEEdeEv(ptr noundef nonnull align 8 dereferenceable(8) %this) #3 comdat align 2 {
entry:
  %this.addr = alloca ptr, align 8
  store ptr %this, ptr %this.addr, align 8
  %this1 = load ptr, ptr %this.addr, align 8
  %_M_current = getelementptr inbounds %"class.__gnu_cxx::__normal_iterator", ptr %this1, i32 0, i32 0
  %0 = load ptr, ptr %_M_current, align 8
  ret ptr %0
}

; Function Attrs: mustprogress nounwind uwtable
define linkonce_odr noundef zeroext i1 @_ZN9__gnu_cxxneIPSt10shared_ptrIN8facebook5velox10BaseVectorEESt6vectorIS5_SaIS5_EEEEbRKNS_17__normal_iteratorIT_T0_EESF_(ptr noundef nonnull align 8 dereferenceable(8) %__lhs, ptr noundef nonnull align 8 dereferenceable(8) %__rhs) #3 comdat {
entry:
  %__lhs.addr = alloca ptr, align 8
  %__rhs.addr = alloca ptr, align 8
  store ptr %__lhs, ptr %__lhs.addr, align 8
  store ptr %__rhs, ptr %__rhs.addr, align 8
  %0 = load ptr, ptr %__lhs.addr, align 8
  %call = call noundef nonnull align 8 dereferenceable(8) ptr @_ZNK9__gnu_cxx17__normal_iteratorIPSt10shared_ptrIN8facebook5velox10BaseVectorEESt6vectorIS5_SaIS5_EEE4baseEv(ptr noundef nonnull align 8 dereferenceable(8) %0) #18
  %1 = load ptr, ptr %call, align 8
  %2 = load ptr, ptr %__rhs.addr, align 8
  %call1 = call noundef nonnull align 8 dereferenceable(8) ptr @_ZNK9__gnu_cxx17__normal_iteratorIPSt10shared_ptrIN8facebook5velox10BaseVectorEESt6vectorIS5_SaIS5_EEE4baseEv(ptr noundef nonnull align 8 dereferenceable(8) %2) #18
  %3 = load ptr, ptr %call1, align 8
  %cmp = icmp ne ptr %1, %3
  ret i1 %cmp
}

; Function Attrs: mustprogress nounwind uwtable
define linkonce_odr ptr @_ZNSt6vectorISt10shared_ptrIN8facebook5velox10BaseVectorEESaIS4_EE3endEv(ptr noundef nonnull align 8 dereferenceable(24) %this) #3 comdat align 2 {
entry:
  %retval = alloca %"class.__gnu_cxx::__normal_iterator", align 8
  %this.addr = alloca ptr, align 8
  store ptr %this, ptr %this.addr, align 8
  %this1 = load ptr, ptr %this.addr, align 8
  %_M_impl = getelementptr inbounds %"struct.std::_Vector_base", ptr %this1, i32 0, i32 0
  %_M_finish = getelementptr inbounds %"struct.std::_Vector_base<std::shared_ptr<facebook::velox::BaseVector>, std::allocator<std::shared_ptr<facebook::velox::BaseVector>>>::_Vector_impl_data", ptr %_M_impl, i32 0, i32 1
  call void @_ZN9__gnu_cxx17__normal_iteratorIPSt10shared_ptrIN8facebook5velox10BaseVectorEESt6vectorIS5_SaIS5_EEEC2ERKS6_(ptr noundef nonnull align 8 dereferenceable(8) %retval, ptr noundef nonnull align 8 dereferenceable(8) %_M_finish) #18
  %coerce.dive = getelementptr inbounds %"class.__gnu_cxx::__normal_iterator", ptr %retval, i32 0, i32 0
  %0 = load ptr, ptr %coerce.dive, align 8
  ret ptr %0
}

; Function Attrs: mustprogress nounwind uwtable
define linkonce_odr ptr @_ZNSt6vectorISt10shared_ptrIN8facebook5velox10BaseVectorEESaIS4_EE5beginEv(ptr noundef nonnull align 8 dereferenceable(24) %this) #3 comdat align 2 {
entry:
  %retval = alloca %"class.__gnu_cxx::__normal_iterator", align 8
  %this.addr = alloca ptr, align 8
  store ptr %this, ptr %this.addr, align 8
  %this1 = load ptr, ptr %this.addr, align 8
  %_M_impl = getelementptr inbounds %"struct.std::_Vector_base", ptr %this1, i32 0, i32 0
  %_M_start = getelementptr inbounds %"struct.std::_Vector_base<std::shared_ptr<facebook::velox::BaseVector>, std::allocator<std::shared_ptr<facebook::velox::BaseVector>>>::_Vector_impl_data", ptr %_M_impl, i32 0, i32 0
  call void @_ZN9__gnu_cxx17__normal_iteratorIPSt10shared_ptrIN8facebook5velox10BaseVectorEESt6vectorIS5_SaIS5_EEEC2ERKS6_(ptr noundef nonnull align 8 dereferenceable(8) %retval, ptr noundef nonnull align 8 dereferenceable(8) %_M_start) #18
  %coerce.dive = getelementptr inbounds %"class.__gnu_cxx::__normal_iterator", ptr %retval, i32 0, i32 0
  %0 = load ptr, ptr %coerce.dive, align 8
  ret ptr %0
}

; Function Attrs: mustprogress nounwind uwtable
define linkonce_odr noundef i32 @_ZNK8facebook5velox10BaseVector4sizeEv(ptr noundef nonnull align 8 dereferenceable(99) %this) #3 comdat align 2 {
entry:
  %this.addr = alloca ptr, align 8
  store ptr %this, ptr %this.addr, align 8
  %this1 = load ptr, ptr %this.addr, align 8
  %length_ = getelementptr inbounds %"class.facebook::velox::BaseVector", ptr %this1, i32 0, i32 8
  %0 = load i32, ptr %length_, align 8
  ret i32 %0
}

; Function Attrs: mustprogress uwtable
define void @_ZN8facebook5velox9RowVector6resizeEib(ptr noundef nonnull align 8 dereferenceable(138) %this, i32 noundef %newSize, i1 noundef zeroext %setNotNull) unnamed_addr #0 align 2 {
entry:
  %this.addr = alloca ptr, align 8
  %newSize.addr = alloca i32, align 4
  %setNotNull.addr = alloca i8, align 1
  %oldSize = alloca i32, align 4
  %__range2 = alloca ptr, align 8
  %__begin2 = alloca %"class.__gnu_cxx::__normal_iterator", align 8
  %__end2 = alloca %"class.__gnu_cxx::__normal_iterator", align 8
  %child = alloca ptr, align 8
  store ptr %this, ptr %this.addr, align 8
  store i32 %newSize, ptr %newSize.addr, align 4
  %frombool = zext i1 %setNotNull to i8
  store i8 %frombool, ptr %setNotNull.addr, align 1
  %this1 = load ptr, ptr %this.addr, align 8
  %call = call noundef i32 @_ZNK8facebook5velox10BaseVector4sizeEv(ptr noundef nonnull align 8 dereferenceable(99) %this1)
  store i32 %call, ptr %oldSize, align 4
  %0 = load i32, ptr %newSize.addr, align 4
  %1 = load i8, ptr %setNotNull.addr, align 1
  %tobool = trunc i8 %1 to i1
  call void @_ZN8facebook5velox10BaseVector6resizeEib(ptr noundef nonnull align 8 dereferenceable(99) %this1, i32 noundef %0, i1 noundef zeroext %tobool)
  %children_ = getelementptr inbounds %"class.facebook::velox::RowVector", ptr %this1, i32 0, i32 3
  store ptr %children_, ptr %__range2, align 8
  %2 = load ptr, ptr %__range2, align 8
  %call2 = call ptr @_ZNSt6vectorISt10shared_ptrIN8facebook5velox10BaseVectorEESaIS4_EE5beginEv(ptr noundef nonnull align 8 dereferenceable(24) %2) #18
  %coerce.dive = getelementptr inbounds %"class.__gnu_cxx::__normal_iterator", ptr %__begin2, i32 0, i32 0
  store ptr %call2, ptr %coerce.dive, align 8
  %3 = load ptr, ptr %__range2, align 8
  %call3 = call ptr @_ZNSt6vectorISt10shared_ptrIN8facebook5velox10BaseVectorEESaIS4_EE3endEv(ptr noundef nonnull align 8 dereferenceable(24) %3) #18
  %coerce.dive4 = getelementptr inbounds %"class.__gnu_cxx::__normal_iterator", ptr %__end2, i32 0, i32 0
  store ptr %call3, ptr %coerce.dive4, align 8
  br label %for.cond

for.cond:                                         ; preds = %for.inc, %entry
  %call5 = call noundef zeroext i1 @_ZN9__gnu_cxxneIPSt10shared_ptrIN8facebook5velox10BaseVectorEESt6vectorIS5_SaIS5_EEEEbRKNS_17__normal_iteratorIT_T0_EESF_(ptr noundef nonnull align 8 dereferenceable(8) %__begin2, ptr noundef nonnull align 8 dereferenceable(8) %__end2) #18
  br i1 %call5, label %for.body, label %for.end

for.body:                                         ; preds = %for.cond
  %call6 = call noundef nonnull align 8 dereferenceable(16) ptr @_ZNK9__gnu_cxx17__normal_iteratorIPSt10shared_ptrIN8facebook5velox10BaseVectorEESt6vectorIS5_SaIS5_EEEdeEv(ptr noundef nonnull align 8 dereferenceable(8) %__begin2) #18
  store ptr %call6, ptr %child, align 8
  %4 = load ptr, ptr %child, align 8
  %call7 = call noundef zeroext i1 @_ZNKSt12__shared_ptrIN8facebook5velox10BaseVectorELN9__gnu_cxx12_Lock_policyE2EEcvbEv(ptr noundef nonnull align 8 dereferenceable(16) %4) #18
  br i1 %call7, label %if.then, label %if.end18

if.then:                                          ; preds = %for.body
  %5 = load ptr, ptr %child, align 8
  %call8 = call noundef ptr @_ZNKSt19__shared_ptr_accessIN8facebook5velox10BaseVectorELN9__gnu_cxx12_Lock_policyE2ELb0ELb0EEptEv(ptr noundef nonnull align 1 dereferenceable(1) %5) #18
  %call9 = call noundef zeroext i1 @_ZNK8facebook5velox10BaseVector6isLazyEv(ptr noundef nonnull align 8 dereferenceable(99) %call8)
  br i1 %call9, label %if.then10, label %if.end

if.then10:                                        ; preds = %if.then
  call void @llvm.trap()
  br label %if.end

if.end:                                           ; preds = %if.then10, %if.then
  %6 = load i32, ptr %newSize.addr, align 4
  %7 = load i32, ptr %oldSize, align 4
  %cmp = icmp sgt i32 %6, %7
  br i1 %cmp, label %if.then11, label %if.end17

if.then11:                                        ; preds = %if.end
  %8 = load ptr, ptr %child, align 8
  %call12 = call noundef zeroext i1 @_ZNKSt12__shared_ptrIN8facebook5velox10BaseVectorELN9__gnu_cxx12_Lock_policyE2EE6uniqueEv(ptr noundef nonnull align 8 dereferenceable(16) %8) #18
  %lnot = xor i1 %call12, true
  br i1 %lnot, label %if.then13, label %if.end14

if.then13:                                        ; preds = %if.then11
  call void @llvm.trap()
  br label %if.end14

if.end14:                                         ; preds = %if.then13, %if.then11
  %9 = load ptr, ptr %child, align 8
  %call15 = call noundef ptr @_ZNKSt19__shared_ptr_accessIN8facebook5velox10BaseVectorELN9__gnu_cxx12_Lock_policyE2ELb0ELb0EEptEv(ptr noundef nonnull align 1 dereferenceable(1) %9) #18
  %10 = load i32, ptr %newSize.addr, align 4
  %11 = load i8, ptr %setNotNull.addr, align 1
  %tobool16 = trunc i8 %11 to i1
  %vtable = load ptr, ptr %call15, align 8
  %vfn = getelementptr inbounds ptr, ptr %vtable, i64 24
  %12 = load ptr, ptr %vfn, align 8
  call void %12(ptr noundef nonnull align 8 dereferenceable(99) %call15, i32 noundef %10, i1 noundef zeroext %tobool16)
  br label %if.end17

if.end17:                                         ; preds = %if.end14, %if.end
  br label %if.end18

if.end18:                                         ; preds = %if.end17, %for.body
  br label %for.inc

for.inc:                                          ; preds = %if.end18
  %call19 = call noundef nonnull align 8 dereferenceable(8) ptr @_ZN9__gnu_cxx17__normal_iteratorIPSt10shared_ptrIN8facebook5velox10BaseVectorEESt6vectorIS5_SaIS5_EEEppEv(ptr noundef nonnull align 8 dereferenceable(8) %__begin2) #18
  br label %for.cond

for.end:                                          ; preds = %for.cond
  ret void
}