; Function Attrs: mustprogress uwtable
define void @_ZN8facebook5velox9RowVector6resizeEib(ptr noundef nonnull align 8 dereferenceable(138) %this, i32 noundef %newSize, i1 noundef zeroext %setNotNull) unnamed_addr #0 align 2 {
entry:
  %length_.i = getelementptr inbounds i8, ptr %this, i64 56
  %0 = load i32, ptr %length_.i, align 8
  tail call void @_ZN8facebook5velox10BaseVector6resizeEib(ptr noundef nonnull align 8 dereferenceable(99) %this, i32 noundef %newSize, i1 noundef zeroext %setNotNull)
  %children_ = getelementptr inbounds i8, ptr %this, i64 112
  %1 = load ptr, ptr %children_, align 8
  %_M_finish.i = getelementptr inbounds i8, ptr %this, i64 120
  %2 = load ptr, ptr %_M_finish.i, align 8
  %cmp.i.not13 = icmp eq ptr %1, %2
  br i1 %cmp.i.not13, label %for.end, label %for.body.lr.ph

for.body.lr.ph:                                   ; preds = %entry
  %.fr = freeze i32 %0
  %cmp = icmp slt i32 %.fr, %newSize
  br i1 %cmp, label %for.body.us, label %for.body

for.body.us:                                      ; preds = %for.body.lr.ph, %for.inc.us
  %__begin2.sroa.0.014.us = phi ptr [ %incdec.ptr.i.us, %for.inc.us ], [ %1, %for.body.lr.ph ]
  %3 = load ptr, ptr %__begin2.sroa.0.014.us, align 8
  %cmp.i8.not.us = icmp eq ptr %3, null
  br i1 %cmp.i8.not.us, label %for.inc.us, label %if.then.us

if.then.us:                                       ; preds = %for.body.us
  %encoding_.i.i.us = getelementptr inbounds i8, ptr %3, i64 28
  %4 = load i32, ptr %encoding_.i.i.us, align 4
  %cmp.i9.us = icmp eq i32 %4, 8
  br i1 %cmp.i9.us, label %if.then10, label %if.end.us

if.end.us:                                        ; preds = %if.then.us
  %_M_refcount.i.us = getelementptr inbounds i8, ptr %__begin2.sroa.0.014.us, i64 8
  %5 = load ptr, ptr %_M_refcount.i.us, align 8
  %tobool.not.i.i.i.us = icmp eq ptr %5, null
  br i1 %tobool.not.i.i.i.us, label %if.then13, label %_ZNKSt12__shared_ptrIN8facebook5velox10BaseVectorELN9__gnu_cxx12_Lock_policyE2EE6uniqueEv.exit.us

_ZNKSt12__shared_ptrIN8facebook5velox10BaseVectorELN9__gnu_cxx12_Lock_policyE2EE6uniqueEv.exit.us: ; preds = %if.end.us
  %_M_use_count.i.i.i.i.us = getelementptr inbounds i8, ptr %5, i64 8
  %6 = load atomic i32, ptr %_M_use_count.i.i.i.i.us monotonic, align 8
  %7 = icmp eq i32 %6, 1
  br i1 %7, label %if.end14.us, label %if.then13

if.end14.us:                                      ; preds = %_ZNKSt12__shared_ptrIN8facebook5velox10BaseVectorELN9__gnu_cxx12_Lock_policyE2EE6uniqueEv.exit.us
  %vtable.us = load ptr, ptr %3, align 8
  %vfn.us = getelementptr inbounds i8, ptr %vtable.us, i64 192
  %8 = load ptr, ptr %vfn.us, align 8
  tail call void %8(ptr noundef nonnull align 8 dereferenceable(99) %3, i32 noundef %newSize, i1 noundef zeroext %setNotNull)
  br label %for.inc.us

for.inc.us:                                       ; preds = %if.end14.us, %for.body.us
  %incdec.ptr.i.us = getelementptr inbounds i8, ptr %__begin2.sroa.0.014.us, i64 16
  %cmp.i.not.us = icmp eq ptr %incdec.ptr.i.us, %2
  br i1 %cmp.i.not.us, label %for.end, label %for.body.us

for.body:                                         ; preds = %for.body.lr.ph, %for.inc
  %__begin2.sroa.0.014 = phi ptr [ %incdec.ptr.i, %for.inc ], [ %1, %for.body.lr.ph ]
  %9 = load ptr, ptr %__begin2.sroa.0.014, align 8
  %cmp.i8.not = icmp eq ptr %9, null
  br i1 %cmp.i8.not, label %for.inc, label %if.then

if.then:                                          ; preds = %for.body
  %encoding_.i.i = getelementptr inbounds i8, ptr %9, i64 28
  %10 = load i32, ptr %encoding_.i.i, align 4
  %cmp.i9 = icmp eq i32 %10, 8
  br i1 %cmp.i9, label %if.then10, label %for.inc

if.then10:                                        ; preds = %if.then, %if.then.us
  tail call void @llvm.trap()
  unreachable

if.then13:                                        ; preds = %if.end.us, %_ZNKSt12__shared_ptrIN8facebook5velox10BaseVectorELN9__gnu_cxx12_Lock_policyE2EE6uniqueEv.exit.us
  tail call void @llvm.trap()
  unreachable

for.inc:                                          ; preds = %if.then, %for.body
  %incdec.ptr.i = getelementptr inbounds i8, ptr %__begin2.sroa.0.014, i64 16
  %cmp.i.not = icmp eq ptr %incdec.ptr.i, %2
  br i1 %cmp.i.not, label %for.end, label %for.body

for.end:                                          ; preds = %for.inc, %for.inc.us, %entry
  ret void
}